; Function Attrs: nounwind uwtable
define ptr @initialize_Lean_LoadDynlib(i8 noundef zeroext %0, ptr noundef readnone captures(none) %1) local_unnamed_addr #1 {
  %.b4 = load i1, ptr @_G_initialized, align 1
  br i1 %.b4, label %3, label %7

3:                                                ; preds = %2
  tail call void @lean_inc_heartbeat() #5
  %4 = tail call noalias ptr @mi_malloc_small(i64 noundef 24) #5
  %5 = icmp eq ptr %4, null
  br i1 %5, label %6, label %.sink.split

6:                                                ; preds = %3
  tail call void @lean_internal_panic_out_of_memory() #6
  unreachable

7:                                                ; preds = %2
  store i1 true, ptr @_G_initialized, align 1
  %8 = tail call ptr @initialize_Init_System_IO(i8 noundef zeroext %0, ptr noundef nonnull inttoptr (i64 1 to ptr)) #5
  %9 = getelementptr i8, ptr %8, i64 4
  %.val = load i32, ptr %9, align 4
  %.mask.i = and i32 %.val, -16777216
  %10 = icmp eq i32 %.mask.i, 16777216
  br i1 %10, label %31, label %11

11:                                               ; preds = %7
  %12 = load i32, ptr %8, align 4, !tbaa !4
  %13 = icmp sgt i32 %12, 1
  br i1 %13, label %14, label %16, !prof !9

14:                                               ; preds = %11
  %15 = add nsw i32 %12, -1
  store i32 %15, ptr %8, align 4, !tbaa !4
  br label %lean_dec_ref.exit

16:                                               ; preds = %11
  %.not.i = icmp eq i32 %12, 0
  br i1 %.not.i, label %lean_dec_ref.exit, label %17

17:                                               ; preds = %16
  tail call void @lean_dec_ref_cold(ptr noundef nonnull %8) #5
  br label %lean_dec_ref.exit

lean_dec_ref.exit:                                ; preds = %14, %16, %17
  store ptr inttoptr (i64 1 to ptr), ptr @l___private_Lean_LoadDynlib_0__Lean_DynlibImpl, align 8, !tbaa !10
  %18 = tail call ptr @lean_mk_string_unchecked(ptr noundef nonnull @.str, i64 noundef 37, i64 noundef 37) #5
  store ptr %18, ptr @l_Lean_loadPlugin___closed__1, align 8, !tbaa !10
  tail call void @lean_mark_persistent(ptr noundef %18) #5
  %19 = tail call ptr @lean_mk_string_unchecked(ptr noundef nonnull @.str.1, i64 noundef 1, i64 noundef 1) #5
  store ptr %19, ptr @l_Lean_loadPlugin___closed__2, align 8, !tbaa !10
  tail call void @lean_mark_persistent(ptr noundef %19) #5
  %20 = tail call ptr @lean_mk_string_unchecked(ptr noundef nonnull @.str.2, i64 noundef 3, i64 noundef 3) #5
  store ptr %20, ptr @l_Lean_loadPlugin___closed__3, align 8, !tbaa !10
  tail call void @lean_mark_persistent(ptr noundef %20) #5
  %21 = tail call ptr @lean_mk_string_unchecked(ptr noundef nonnull @.str.3, i64 noundef 7, i64 noundef 7) #5
  store ptr %21, ptr @l_Lean_loadPlugin___closed__4, align 8, !tbaa !10
  tail call void @lean_mark_persistent(ptr noundef %21) #5
  %22 = tail call ptr @lean_mk_string_unchecked(ptr noundef nonnull @.str.4, i64 noundef 11, i64 noundef 11) #5
  store ptr %22, ptr @l_Lean_loadPlugin___closed__5, align 8, !tbaa !10
  tail call void @lean_mark_persistent(ptr noundef %22) #5
  %23 = tail call ptr @lean_mk_string_unchecked(ptr noundef nonnull @.str.5, i64 noundef 0, i64 noundef 0) #5
  store ptr %23, ptr @l_Lean_loadPlugin___closed__6, align 8, !tbaa !10
  tail call void @lean_mark_persistent(ptr noundef %23) #5
  %24 = tail call ptr @lean_mk_string_unchecked(ptr noundef nonnull @.str.6, i64 noundef 45, i64 noundef 45) #5
  store ptr %24, ptr @l_Lean_loadPlugin___closed__7, align 8, !tbaa !10
  tail call void @lean_mark_persistent(ptr noundef %24) #5
  tail call void @lean_inc_heartbeat() #5
  %25 = tail call noalias ptr @mi_malloc_small(i64 noundef 24) #5
  %26 = icmp eq ptr %25, null
  br i1 %26, label %27, label %.sink.split

27:                                               ; preds = %lean_dec_ref.exit
  tail call void @lean_internal_panic_out_of_memory() #6
  unreachable

.sink.split:                                      ; preds = %lean_dec_ref.exit, %3
  %.sink9 = phi ptr [ %4, %3 ], [ %25, %lean_dec_ref.exit ]
  %28 = getelementptr inbounds nuw i8, ptr %.sink9, i64 4
  store i32 1, ptr %.sink9, align 4, !tbaa !4
  store i32 131096, ptr %28, align 4
  %29 = getelementptr inbounds nuw i8, ptr %.sink9, i64 8
  store ptr inttoptr (i64 1 to ptr), ptr %29, align 8, !tbaa !10
  %30 = getelementptr inbounds nuw i8, ptr %.sink9, i64 16
  store ptr inttoptr (i64 1 to ptr), ptr %30, align 8, !tbaa !10
  br label %31

31:                                               ; preds = %.sink.split, %7
  %.0 = phi ptr [ %8, %7 ], [ %.sink9, %.sink.split ]
  ret ptr %.0
}